target datalayout = "e-m:e-p270:32:32-p271:32:32-p272:64:64-i64:64-i128:128-f80:128-n8:16:32:64-S128"
target triple = "x86_64-pc-linux-gnu"

; Function Attrs: nounwind uwtable
define internal void @pred8x16_dc_9_c(ptr noundef %0, i64 noundef %1) #1 {
  %3 = alloca ptr, align 8
  %4 = alloca i64, align 8
  %5 = alloca i32, align 4
  %6 = alloca i32, align 4
  %7 = alloca i32, align 4
  %8 = alloca i32, align 4
  %9 = alloca i32, align 4
  %10 = alloca i32, align 4
  %11 = alloca i64, align 8
  %12 = alloca i64, align 8
  %13 = alloca i64, align 8
  %14 = alloca i64, align 8
  %15 = alloca i64, align 8
  %16 = alloca i64, align 8
  %17 = alloca i64, align 8
  %18 = alloca i64, align 8
  %19 = alloca ptr, align 8
  store ptr %0, ptr %3, align 8, !tbaa !12
  store i64 %1, ptr %4, align 8, !tbaa !14
  call void @llvm.lifetime.start.p0(i64 4, ptr %5) #9
  call void @llvm.lifetime.start.p0(i64 4, ptr %6) #9
  call void @llvm.lifetime.start.p0(i64 4, ptr %7) #9
  call void @llvm.lifetime.start.p0(i64 4, ptr %8) #9
  call void @llvm.lifetime.start.p0(i64 4, ptr %9) #9
  call void @llvm.lifetime.start.p0(i64 4, ptr %10) #9
  call void @llvm.lifetime.start.p0(i64 8, ptr %11) #9
  call void @llvm.lifetime.start.p0(i64 8, ptr %12) #9
  call void @llvm.lifetime.start.p0(i64 8, ptr %13) #9
  call void @llvm.lifetime.start.p0(i64 8, ptr %14) #9
  call void @llvm.lifetime.start.p0(i64 8, ptr %15) #9
  call void @llvm.lifetime.start.p0(i64 8, ptr %16) #9
  call void @llvm.lifetime.start.p0(i64 8, ptr %17) #9
  call void @llvm.lifetime.start.p0(i64 8, ptr %18) #9
  call void @llvm.lifetime.start.p0(i64 8, ptr %19) #9
  %20 = load ptr, ptr %3, align 8, !tbaa !12
  store ptr %20, ptr %19, align 8, !tbaa !16
  %21 = load i64, ptr %4, align 8, !tbaa !14
  %22 = ashr i64 %21, 1
  store i64 %22, ptr %4, align 8, !tbaa !14
  store i32 0, ptr %10, align 4, !tbaa !9
  store i32 0, ptr %9, align 4, !tbaa !9
  store i32 0, ptr %8, align 4, !tbaa !9
  store i32 0, ptr %7, align 4, !tbaa !9
  store i32 0, ptr %6, align 4, !tbaa !9
  store i32 0, ptr %5, align 4, !tbaa !9
  br label %23

23:                                               ; preds = %94, %2
  %24 = load i32, ptr %5, align 4, !tbaa !9
  %25 = icmp slt i32 %24, 4
  br i1 %25, label %26, label %97

26:                                               ; preds = %23
  %27 = load ptr, ptr %19, align 8, !tbaa !16
  %28 = load i32, ptr %5, align 4, !tbaa !9
  %29 = sext i32 %28 to i64
  %30 = load i64, ptr %4, align 8, !tbaa !14
  %31 = mul nsw i64 %29, %30
  %32 = add nsw i64 -1, %31
  %33 = getelementptr inbounds i16, ptr %27, i64 %32
  %34 = load i16, ptr %33, align 2, !tbaa !19
  %35 = zext i16 %34 to i32
  %36 = load ptr, ptr %19, align 8, !tbaa !16
  %37 = load i32, ptr %5, align 4, !tbaa !9
  %38 = sext i32 %37 to i64
  %39 = load i64, ptr %4, align 8, !tbaa !14
  %40 = sub nsw i64 %38, %39
  %41 = getelementptr inbounds i16, ptr %36, i64 %40
  %42 = load i16, ptr %41, align 2, !tbaa !19
  %43 = zext i16 %42 to i32
  %44 = add nsw i32 %35, %43
  %45 = load i32, ptr %6, align 4, !tbaa !9
  %46 = add nsw i32 %45, %44
  store i32 %46, ptr %6, align 4, !tbaa !9
  %47 = load ptr, ptr %19, align 8, !tbaa !16
  %48 = load i32, ptr %5, align 4, !tbaa !9
  %49 = add nsw i32 4, %48
  %50 = sext i32 %49 to i64
  %51 = load i64, ptr %4, align 8, !tbaa !14
  %52 = sub nsw i64 %50, %51
  %53 = getelementptr inbounds i16, ptr %47, i64 %52
  %54 = load i16, ptr %53, align 2, !tbaa !19
  %55 = zext i16 %54 to i32
  %56 = load i32, ptr %7, align 4, !tbaa !9
  %57 = add nsw i32 %56, %55
  store i32 %57, ptr %7, align 4, !tbaa !9
  %58 = load ptr, ptr %19, align 8, !tbaa !16
  %59 = load i32, ptr %5, align 4, !tbaa !9
  %60 = add nsw i32 %59, 4
  %61 = sext i32 %60 to i64
  %62 = load i64, ptr %4, align 8, !tbaa !14
  %63 = mul nsw i64 %61, %62
  %64 = add nsw i64 -1, %63
  %65 = getelementptr inbounds i16, ptr %58, i64 %64
  %66 = load i16, ptr %65, align 2, !tbaa !19
  %67 = zext i16 %66 to i32
  %68 = load i32, ptr %8, align 4, !tbaa !9
  %69 = add nsw i32 %68, %67
  store i32 %69, ptr %8, align 4, !tbaa !9
  %70 = load ptr, ptr %19, align 8, !tbaa !16
  %71 = load i32, ptr %5, align 4, !tbaa !9
  %72 = add nsw i32 %71, 8
  %73 = sext i32 %72 to i64
  %74 = load i64, ptr %4, align 8, !tbaa !14
  %75 = mul nsw i64 %73, %74
  %76 = add nsw i64 -1, %75
  %77 = getelementptr inbounds i16, ptr %70, i64 %76
  %78 = load i16, ptr %77, align 2, !tbaa !19
  %79 = zext i16 %78 to i32
  %80 = load i32, ptr %9, align 4, !tbaa !9
  %81 = add nsw i32 %80, %79
  store i32 %81, ptr %9, align 4, !tbaa !9
  %82 = load ptr, ptr %19, align 8, !tbaa !16
  %83 = load i32, ptr %5, align 4, !tbaa !9
  %84 = add nsw i32 %83, 12
  %85 = sext i32 %84 to i64
  %86 = load i64, ptr %4, align 8, !tbaa !14
  %87 = mul nsw i64 %85, %86
  %88 = add nsw i64 -1, %87
  %89 = getelementptr inbounds i16, ptr %82, i64 %88
  %90 = load i16, ptr %89, align 2, !tbaa !19
  %91 = zext i16 %90 to i32
  %92 = load i32, ptr %10, align 4, !tbaa !9
  %93 = add nsw i32 %92, %91
  store i32 %93, ptr %10, align 4, !tbaa !9
  br label %94

94:                                               ; preds = %26
  %95 = load i32, ptr %5, align 4, !tbaa !9
  %96 = add nsw i32 %95, 1
  store i32 %96, ptr %5, align 4, !tbaa !9
  br label %23, !llvm.loop !45

97:                                               ; preds = %23
  %98 = load i32, ptr %6, align 4, !tbaa !9
  %99 = add nsw i32 %98, 4
  %100 = ashr i32 %99, 3
  %101 = sext i32 %100 to i64
  %102 = mul i64 %101, 281479271743489
  store i64 %102, ptr %11, align 8, !tbaa !14
  %103 = load i32, ptr %7, align 4, !tbaa !9
  %104 = add nsw i32 %103, 2
  %105 = ashr i32 %104, 2
  %106 = sext i32 %105 to i64
  %107 = mul i64 %106, 281479271743489
  store i64 %107, ptr %12, align 8, !tbaa !14
  %108 = load i32, ptr %8, align 4, !tbaa !9
  %109 = add nsw i32 %108, 2
  %110 = ashr i32 %109, 2
  %111 = sext i32 %110 to i64
  %112 = mul i64 %111, 281479271743489
  store i64 %112, ptr %13, align 8, !tbaa !14
  %113 = load i32, ptr %7, align 4, !tbaa !9
  %114 = load i32, ptr %8, align 4, !tbaa !9
  %115 = add nsw i32 %113, %114
  %116 = add nsw i32 %115, 4
  %117 = ashr i32 %116, 3
  %118 = sext i32 %117 to i64
  %119 = mul i64 %118, 281479271743489
  store i64 %119, ptr %14, align 8, !tbaa !14
  %120 = load i32, ptr %9, align 4, !tbaa !9
  %121 = add nsw i32 %120, 2
  %122 = ashr i32 %121, 2
  %123 = sext i32 %122 to i64
  %124 = mul i64 %123, 281479271743489
  store i64 %124, ptr %15, align 8, !tbaa !14
  %125 = load i32, ptr %7, align 4, !tbaa !9
  %126 = load i32, ptr %9, align 4, !tbaa !9
  %127 = add nsw i32 %125, %126
  %128 = add nsw i32 %127, 4
  %129 = ashr i32 %128, 3
  %130 = sext i32 %129 to i64
  %131 = mul i64 %130, 281479271743489
  store i64 %131, ptr %16, align 8, !tbaa !14
  %132 = load i32, ptr %10, align 4, !tbaa !9
  %133 = add nsw i32 %132, 2
  %134 = ashr i32 %133, 2
  %135 = sext i32 %134 to i64
  %136 = mul i64 %135, 281479271743489
  store i64 %136, ptr %17, align 8, !tbaa !14
  %137 = load i32, ptr %7, align 4, !tbaa !9
  %138 = load i32, ptr %10, align 4, !tbaa !9
  %139 = add nsw i32 %137, %138
  %140 = add nsw i32 %139, 4
  %141 = ashr i32 %140, 3
  %142 = sext i32 %141 to i64
  %143 = mul i64 %142, 281479271743489
  store i64 %143, ptr %18, align 8, !tbaa !14
  store i32 0, ptr %5, align 4, !tbaa !9
  br label %144

144:                                              ; preds = %164, %97
  %145 = load i32, ptr %5, align 4, !tbaa !9
  %146 = icmp slt i32 %145, 4
  br i1 %146, label %147, label %167

147:                                              ; preds = %144
  %148 = load i64, ptr %11, align 8, !tbaa !14
  %149 = load ptr, ptr %19, align 8, !tbaa !16
  %150 = load i32, ptr %5, align 4, !tbaa !9
  %151 = sext i32 %150 to i64
  %152 = load i64, ptr %4, align 8, !tbaa !14
  %153 = mul nsw i64 %151, %152
  %154 = getelementptr inbounds i16, ptr %149, i64 %153
  %155 = getelementptr inbounds i64, ptr %154, i64 0
  store i64 %148, ptr %155, align 8, !tbaa !18
  %156 = load i64, ptr %12, align 8, !tbaa !14
  %157 = load ptr, ptr %19, align 8, !tbaa !16
  %158 = load i32, ptr %5, align 4, !tbaa !9
  %159 = sext i32 %158 to i64
  %160 = load i64, ptr %4, align 8, !tbaa !14
  %161 = mul nsw i64 %159, %160
  %162 = getelementptr inbounds i16, ptr %157, i64 %161
  %163 = getelementptr inbounds i64, ptr %162, i64 1
  store i64 %156, ptr %163, align 8, !tbaa !18
  br label %164

164:                                              ; preds = %147
  %165 = load i32, ptr %5, align 4, !tbaa !9
  %166 = add nsw i32 %165, 1
  store i32 %166, ptr %5, align 4, !tbaa !9
  br label %144, !llvm.loop !46

167:                                              ; preds = %144
  store i32 4, ptr %5, align 4, !tbaa !9
  br label %168

168:                                              ; preds = %188, %167
  %169 = load i32, ptr %5, align 4, !tbaa !9
  %170 = icmp slt i32 %169, 8
  br i1 %170, label %171, label %191

171:                                              ; preds = %168
  %172 = load i64, ptr %13, align 8, !tbaa !14
  %173 = load ptr, ptr %19, align 8, !tbaa !16
  %174 = load i32, ptr %5, align 4, !tbaa !9
  %175 = sext i32 %174 to i64
  %176 = load i64, ptr %4, align 8, !tbaa !14
  %177 = mul nsw i64 %175, %176
  %178 = getelementptr inbounds i16, ptr %173, i64 %177
  %179 = getelementptr inbounds i64, ptr %178, i64 0
  store i64 %172, ptr %179, align 8, !tbaa !18
  %180 = load i64, ptr %14, align 8, !tbaa !14
  %181 = load ptr, ptr %19, align 8, !tbaa !16
  %182 = load i32, ptr %5, align 4, !tbaa !9
  %183 = sext i32 %182 to i64
  %184 = load i64, ptr %4, align 8, !tbaa !14
  %185 = mul nsw i64 %183, %184
  %186 = getelementptr inbounds i16, ptr %181, i64 %185
  %187 = getelementptr inbounds i64, ptr %186, i64 1
  store i64 %180, ptr %187, align 8, !tbaa !18
  br label %188

188:                                              ; preds = %171
  %189 = load i32, ptr %5, align 4, !tbaa !9
  %190 = add nsw i32 %189, 1
  store i32 %190, ptr %5, align 4, !tbaa !9
  br label %168, !llvm.loop !47

191:                                              ; preds = %168
  store i32 8, ptr %5, align 4, !tbaa !9
  br label %192

192:                                              ; preds = %212, %191
  %193 = load i32, ptr %5, align 4, !tbaa !9
  %194 = icmp slt i32 %193, 12
  br i1 %194, label %195, label %215

195:                                              ; preds = %192
  %196 = load i64, ptr %15, align 8, !tbaa !14
  %197 = load ptr, ptr %19, align 8, !tbaa !16
  %198 = load i32, ptr %5, align 4, !tbaa !9
  %199 = sext i32 %198 to i64
  %200 = load i64, ptr %4, align 8, !tbaa !14
  %201 = mul nsw i64 %199, %200
  %202 = getelementptr inbounds i16, ptr %197, i64 %201
  %203 = getelementptr inbounds i64, ptr %202, i64 0
  store i64 %196, ptr %203, align 8, !tbaa !18
  %204 = load i64, ptr %16, align 8, !tbaa !14
  %205 = load ptr, ptr %19, align 8, !tbaa !16
  %206 = load i32, ptr %5, align 4, !tbaa !9
  %207 = sext i32 %206 to i64
  %208 = load i64, ptr %4, align 8, !tbaa !14
  %209 = mul nsw i64 %207, %208
  %210 = getelementptr inbounds i16, ptr %205, i64 %209
  %211 = getelementptr inbounds i64, ptr %210, i64 1
  store i64 %204, ptr %211, align 8, !tbaa !18
  br label %212

212:                                              ; preds = %195
  %213 = load i32, ptr %5, align 4, !tbaa !9
  %214 = add nsw i32 %213, 1
  store i32 %214, ptr %5, align 4, !tbaa !9
  br label %192, !llvm.loop !48

215:                                              ; preds = %192
  store i32 12, ptr %5, align 4, !tbaa !9
  br label %216

216:                                              ; preds = %236, %215
  %217 = load i32, ptr %5, align 4, !tbaa !9
  %218 = icmp slt i32 %217, 16
  br i1 %218, label %219, label %239

219:                                              ; preds = %216
  %220 = load i64, ptr %17, align 8, !tbaa !14
  %221 = load ptr, ptr %19, align 8, !tbaa !16
  %222 = load i32, ptr %5, align 4, !tbaa !9
  %223 = sext i32 %222 to i64
  %224 = load i64, ptr %4, align 8, !tbaa !14
  %225 = mul nsw i64 %223, %224
  %226 = getelementptr inbounds i16, ptr %221, i64 %225
  %227 = getelementptr inbounds i64, ptr %226, i64 0
  store i64 %220, ptr %227, align 8, !tbaa !18
  %228 = load i64, ptr %18, align 8, !tbaa !14
  %229 = load ptr, ptr %19, align 8, !tbaa !16
  %230 = load i32, ptr %5, align 4, !tbaa !9
  %231 = sext i32 %230 to i64
  %232 = load i64, ptr %4, align 8, !tbaa !14
  %233 = mul nsw i64 %231, %232
  %234 = getelementptr inbounds i16, ptr %229, i64 %233
  %235 = getelementptr inbounds i64, ptr %234, i64 1
  store i64 %228, ptr %235, align 8, !tbaa !18
  br label %236

236:                                              ; preds = %219
  %237 = load i32, ptr %5, align 4, !tbaa !9
  %238 = add nsw i32 %237, 1
  store i32 %238, ptr %5, align 4, !tbaa !9
  br label %216, !llvm.loop !49

239:                                              ; preds = %216
  call void @llvm.lifetime.end.p0(i64 8, ptr %19) #9
  call void @llvm.lifetime.end.p0(i64 8, ptr %18) #9
  call void @llvm.lifetime.end.p0(i64 8, ptr %17) #9
  call void @llvm.lifetime.end.p0(i64 8, ptr %16) #9
  call void @llvm.lifetime.end.p0(i64 8, ptr %15) #9
  call void @llvm.lifetime.end.p0(i64 8, ptr %14) #9
  call void @llvm.lifetime.end.p0(i64 8, ptr %13) #9
  call void @llvm.lifetime.end.p0(i64 8, ptr %12) #9
  call void @llvm.lifetime.end.p0(i64 8, ptr %11) #9
  call void @llvm.lifetime.end.p0(i64 4, ptr %10) #9
  call void @llvm.lifetime.end.p0(i64 4, ptr %9) #9
  call void @llvm.lifetime.end.p0(i64 4, ptr %8) #9
  call void @llvm.lifetime.end.p0(i64 4, ptr %7) #9
  call void @llvm.lifetime.end.p0(i64 4, ptr %6) #9
  call void @llvm.lifetime.end.p0(i64 4, ptr %5) #9
  ret void
}