; Function Attrs: nofree norecurse nosync nounwind memory(argmem: readwrite) uwtable
define internal void @pred8x16_dc_9_c(ptr noundef captures(none) %0, i64 noundef %1) #3 {
  %3 = ashr i64 %1, 1
  %invariant.gep = getelementptr i8, ptr %0, i64 -2
  br label %4

4:                                                ; preds = %2, %4
  %indvars.iv = phi i64 [ 0, %2 ], [ %indvars.iv.next, %4 ]
  %.07794 = phi i32 [ 0, %2 ], [ %13, %4 ]
  %.07893 = phi i32 [ 0, %2 ], [ %19, %4 ]
  %.07992 = phi i32 [ 0, %2 ], [ %23, %4 ]
  %.08091 = phi i32 [ 0, %2 ], [ %28, %4 ]
  %.08190 = phi i32 [ 0, %2 ], [ %33, %4 ]
  %5 = mul nsw i64 %3, %indvars.iv
  %gep = getelementptr i16, ptr %invariant.gep, i64 %5
  %6 = load i16, ptr %gep, align 2, !tbaa !9
  %7 = zext i16 %6 to i32
  %8 = sub nsw i64 %indvars.iv, %3
  %9 = getelementptr inbounds i16, ptr %0, i64 %8
  %10 = load i16, ptr %9, align 2, !tbaa !9
  %11 = zext i16 %10 to i32
  %12 = add nuw nsw i32 %.07794, %7
  %13 = add nuw nsw i32 %12, %11
  %14 = or disjoint i64 %indvars.iv, 4
  %15 = sub nsw i64 %14, %3
  %16 = getelementptr inbounds i16, ptr %0, i64 %15
  %17 = load i16, ptr %16, align 2, !tbaa !9
  %18 = zext i16 %17 to i32
  %19 = add nuw nsw i32 %.07893, %18
  %20 = mul nsw i64 %3, %14
  %gep85 = getelementptr i16, ptr %invariant.gep, i64 %20
  %21 = load i16, ptr %gep85, align 2, !tbaa !9
  %22 = zext i16 %21 to i32
  %23 = add nuw nsw i32 %.07992, %22
  %24 = or disjoint i64 %indvars.iv, 8
  %25 = mul nsw i64 %3, %24
  %gep87 = getelementptr i16, ptr %invariant.gep, i64 %25
  %26 = load i16, ptr %gep87, align 2, !tbaa !9
  %27 = zext i16 %26 to i32
  %28 = add nuw nsw i32 %.08091, %27
  %29 = or disjoint i64 %indvars.iv, 12
  %30 = mul nsw i64 %3, %29
  %gep89 = getelementptr i16, ptr %invariant.gep, i64 %30
  %31 = load i16, ptr %gep89, align 2, !tbaa !9
  %32 = zext i16 %31 to i32
  %33 = add nuw nsw i32 %.08190, %32
  %indvars.iv.next = add nuw nsw i64 %indvars.iv, 1
  %exitcond.not = icmp eq i64 %indvars.iv.next, 4
  br i1 %exitcond.not, label %34, label %4, !llvm.loop !35

34:                                               ; preds = %4
  %35 = add nuw nsw i32 %13, 4
  %36 = lshr i32 %35, 3
  %37 = zext nneg i32 %36 to i64
  %38 = mul i64 %37, 281479271743489
  %39 = add nuw nsw i32 %19, 2
  %40 = lshr i32 %39, 2
  %41 = zext nneg i32 %40 to i64
  %42 = mul i64 %41, 281479271743489
  br label %43

43:                                               ; preds = %34, %43
  %indvars.iv105 = phi i64 [ 0, %34 ], [ %indvars.iv.next106, %43 ]
  %44 = mul nsw i64 %3, %indvars.iv105
  %45 = getelementptr inbounds i16, ptr %0, i64 %44
  store i64 %38, ptr %45, align 8, !tbaa !8
  %46 = getelementptr inbounds nuw i8, ptr %45, i64 8
  store i64 %42, ptr %46, align 8, !tbaa !8
  %indvars.iv.next106 = add nuw nsw i64 %indvars.iv105, 1
  %exitcond108.not = icmp eq i64 %indvars.iv.next106, 4
  br i1 %exitcond108.not, label %.preheader83.preheader, label %43, !llvm.loop !36

.preheader83.preheader:                           ; preds = %43
  %47 = add nuw nsw i32 %23, 2
  %48 = lshr i32 %47, 2
  %49 = zext nneg i32 %48 to i64
  %50 = mul i64 %49, 281479271743489
  %51 = add nuw nsw i32 %19, 4
  %52 = add nuw nsw i32 %51, %23
  %53 = lshr i32 %52, 3
  %54 = zext nneg i32 %53 to i64
  %55 = mul i64 %54, 281479271743489
  br label %.preheader83

.preheader83:                                     ; preds = %.preheader83.preheader, %.preheader83
  %indvars.iv109 = phi i64 [ 4, %.preheader83.preheader ], [ %indvars.iv.next110, %.preheader83 ]
  %56 = mul nsw i64 %3, %indvars.iv109
  %57 = getelementptr inbounds i16, ptr %0, i64 %56
  store i64 %50, ptr %57, align 8, !tbaa !8
  %58 = getelementptr inbounds nuw i8, ptr %57, i64 8
  store i64 %55, ptr %58, align 8, !tbaa !8
  %indvars.iv.next110 = add nuw nsw i64 %indvars.iv109, 1
  %exitcond112.not = icmp eq i64 %indvars.iv.next110, 8
  br i1 %exitcond112.not, label %.preheader82.preheader, label %.preheader83, !llvm.loop !37

.preheader82.preheader:                           ; preds = %.preheader83
  %59 = add nuw nsw i32 %28, 2
  %60 = lshr i32 %59, 2
  %61 = zext nneg i32 %60 to i64
  %62 = mul i64 %61, 281479271743489
  %63 = add nuw nsw i32 %51, %28
  %64 = lshr i32 %63, 3
  %65 = zext nneg i32 %64 to i64
  %66 = mul i64 %65, 281479271743489
  br label %.preheader82

.preheader82:                                     ; preds = %.preheader82.preheader, %.preheader82
  %indvars.iv113 = phi i64 [ 8, %.preheader82.preheader ], [ %indvars.iv.next114, %.preheader82 ]
  %67 = mul nsw i64 %3, %indvars.iv113
  %68 = getelementptr inbounds i16, ptr %0, i64 %67
  store i64 %62, ptr %68, align 8, !tbaa !8
  %69 = getelementptr inbounds nuw i8, ptr %68, i64 8
  store i64 %66, ptr %69, align 8, !tbaa !8
  %indvars.iv.next114 = add nuw nsw i64 %indvars.iv113, 1
  %exitcond116.not = icmp eq i64 %indvars.iv.next114, 12
  br i1 %exitcond116.not, label %.preheader.preheader, label %.preheader82, !llvm.loop !38

.preheader.preheader:                             ; preds = %.preheader82
  %70 = add nuw nsw i32 %33, 2
  %71 = lshr i32 %70, 2
  %72 = zext nneg i32 %71 to i64
  %73 = mul i64 %72, 281479271743489
  %74 = add nuw nsw i32 %51, %33
  %75 = lshr i32 %74, 3
  %76 = zext nneg i32 %75 to i64
  %77 = mul i64 %76, 281479271743489
  br label %.preheader

.preheader:                                       ; preds = %.preheader.preheader, %.preheader
  %indvars.iv117 = phi i64 [ 12, %.preheader.preheader ], [ %indvars.iv.next118, %.preheader ]
  %78 = mul nsw i64 %3, %indvars.iv117
  %79 = getelementptr inbounds i16, ptr %0, i64 %78
  store i64 %73, ptr %79, align 8, !tbaa !8
  %80 = getelementptr inbounds nuw i8, ptr %79, i64 8
  store i64 %77, ptr %80, align 8, !tbaa !8
  %indvars.iv.next118 = add nuw nsw i64 %indvars.iv117, 1
  %exitcond120.not = icmp eq i64 %indvars.iv.next118, 16
  br i1 %exitcond120.not, label %81, label %.preheader, !llvm.loop !39

81:                                               ; preds = %.preheader
  ret void
}